target datalayout = "e-m:e-p270:32:32-p271:32:32-p272:64:64-i64:64-i128:128-f80:128-n8:16:32:64-S128"
target triple = "x86_64-pc-linux-gnu"

%struct.imf_field = type { ptr, ptr, ptr, i8 }

@proto_register_imf.ett = internal global [9 x ptr] [ptr @ett_imf, ptr @ett_imf_content_type, ptr @ett_imf_group, ptr @ett_imf_mailbox, ptr @ett_imf_mailbox_list, ptr @ett_imf_address_list, ptr @ett_imf_siolabel, ptr @ett_imf_extension, ptr @ett_imf_message_text], align 16
@.str.178 = private unnamed_addr constant [19 x i8] c"Custom IMF headers\00", align 1
@.str.179 = private unnamed_addr constant [18 x i8] c"imf_header_fields\00", align 1
@header_fields = internal global ptr null, align 8
@num_header_fields = internal global i32 0, align 4
@.str.180 = private unnamed_addr constant [24 x i8] c"Internet Message Format\00", align 1
@.str.181 = private unnamed_addr constant [4 x i8] c"IMF\00", align 1
@.str.182 = private unnamed_addr constant [4 x i8] c"imf\00", align 1
@proto_imf = internal global i32 0, align 4
@imf_handle = internal global ptr null, align 8
@.str.183 = private unnamed_addr constant [21 x i8] c"custom_header_fields\00", align 1
@.str.184 = private unnamed_addr constant [111 x i8] c"A table to define custom IMF headers for which fields can be setup and used for filtering/data extraction etc.\00", align 1
@imf_field_table = internal global ptr null, align 8
@imf_eo_tap = internal global i32 0, align 4

; Function Attrs: null_pointer_is_valid sspstrong uwtable
define hidden void @proto_register_imf() #0 {
  %1 = alloca ptr, align 8
  %2 = alloca ptr, align 8
  %3 = alloca ptr, align 8
  %4 = alloca ptr, align 8
  call void @llvm.lifetime.start.p0(i64 8, ptr %1) #9
  %5 = call ptr @uat_new(ptr noundef @.str.178, i64 noundef 24, ptr noundef @.str.179, i1 noundef zeroext true, ptr noundef @header_fields, ptr noundef @num_header_fields, i32 noundef 3, ptr noundef null, ptr noundef @header_fields_copy_cb, ptr noundef @header_fields_update_cb, ptr noundef @header_fields_free_cb, ptr noundef @header_fields_post_update_cb, ptr noundef @header_fields_reset_cb, ptr noundef @proto_register_imf.attributes_flds)
  store ptr %5, ptr %1, align 8
  call void @llvm.lifetime.start.p0(i64 8, ptr %2) #9
  call void @llvm.lifetime.start.p0(i64 8, ptr %3) #9
  call void @llvm.lifetime.start.p0(i64 8, ptr %4) #9
  %6 = call i32 @proto_register_protocol(ptr noundef @.str.180, ptr noundef @.str.181, ptr noundef @.str.182)
  store i32 %6, ptr @proto_imf, align 4
  %7 = load i32, ptr @proto_imf, align 4
  call void @proto_register_field_array(i32 noundef %7, ptr noundef @proto_register_imf.hf, i32 noundef 84)
  call void @proto_register_subtree_array(ptr noundef @proto_register_imf.ett, i32 noundef 9)
  %8 = load i32, ptr @proto_imf, align 4
  %9 = call ptr @expert_register_protocol(i32 noundef %8)
  store ptr %9, ptr %3, align 8
  %10 = load ptr, ptr %3, align 8
  call void @expert_register_field_array(ptr noundef %10, ptr noundef @proto_register_imf.ei, i32 noundef 1)
  %11 = load i32, ptr @proto_imf, align 4
  %12 = call ptr @register_dissector(ptr noundef @.str.182, ptr noundef @dissect_imf, i32 noundef %11)
  store ptr %12, ptr @imf_handle, align 8
  %13 = load i32, ptr @proto_imf, align 4
  %14 = call ptr @prefs_register_protocol(i32 noundef %13, ptr noundef null)
  store ptr %14, ptr %2, align 8
  %15 = load ptr, ptr %2, align 8
  %16 = load ptr, ptr %1, align 8
  call void @prefs_register_uat_preference(ptr noundef %15, ptr noundef @.str.183, ptr noundef @.str.178, ptr noundef @.str.184, ptr noundef %16)
  %17 = call ptr @wmem_epan_scope()
  %18 = call noalias ptr @wmem_map_new(ptr noundef %17, ptr noundef @wmem_str_hash, ptr noundef @g_str_equal)
  store ptr %18, ptr @imf_field_table, align 8
  store ptr @imf_fields, ptr %4, align 8
  br label %19

19:                                               ; preds = %31, %0
  %20 = load ptr, ptr %4, align 8
  %21 = getelementptr inbounds nuw %struct.imf_field, ptr %20, i32 0, i32 0
  %22 = load ptr, ptr %21, align 8
  %23 = icmp ne ptr %22, null
  br i1 %23, label %24, label %34

24:                                               ; preds = %19
  %25 = load ptr, ptr @imf_field_table, align 8
  %26 = load ptr, ptr %4, align 8
  %27 = getelementptr inbounds nuw %struct.imf_field, ptr %26, i32 0, i32 0
  %28 = load ptr, ptr %27, align 8
  %29 = load ptr, ptr %4, align 8
  %30 = call ptr @wmem_map_insert(ptr noundef %25, ptr noundef %28, ptr noundef %29)
  br label %31

31:                                               ; preds = %24
  %32 = load ptr, ptr %4, align 8
  %33 = getelementptr %struct.imf_field, ptr %32, i32 1
  store ptr %33, ptr %4, align 8
  br label %19, !llvm.loop !8

34:                                               ; preds = %19
  %35 = load i32, ptr @proto_imf, align 4
  %36 = call i32 @register_export_object(i32 noundef %35, ptr noundef @imf_eo_packet, ptr noundef null)
  store i32 %36, ptr @imf_eo_tap, align 4
  call void @llvm.lifetime.end.p0(i64 8, ptr %4) #9
  call void @llvm.lifetime.end.p0(i64 8, ptr %3) #9
  call void @llvm.lifetime.end.p0(i64 8, ptr %2) #9
  call void @llvm.lifetime.end.p0(i64 8, ptr %1) #9
  ret void
}