; Function Attrs: null_pointer_is_valid sspstrong uwtable
define hidden void @proto_register_imf() local_unnamed_addr #0 {
  %1 = tail call ptr @uat_new(ptr noundef nonnull @.str.178, i64 noundef 24, ptr noundef nonnull @.str.179, i1 noundef zeroext true, ptr noundef nonnull @header_fields, ptr noundef nonnull @num_header_fields, i32 noundef 3, ptr noundef null, ptr noundef nonnull @header_fields_copy_cb, ptr noundef nonnull @header_fields_update_cb, ptr noundef nonnull @header_fields_free_cb, ptr noundef nonnull @header_fields_post_update_cb, ptr noundef nonnull @header_fields_reset_cb, ptr noundef nonnull @proto_register_imf.attributes_flds)
  %2 = tail call i32 @proto_register_protocol(ptr noundef nonnull @.str.180, ptr noundef nonnull @.str.181, ptr noundef nonnull @.str.182)
  store i32 %2, ptr @proto_imf, align 4
  tail call void @proto_register_field_array(i32 noundef %2, ptr noundef nonnull @proto_register_imf.hf, i32 noundef 84)
  tail call void @proto_register_subtree_array(ptr noundef nonnull @proto_register_imf.ett, i32 noundef 9)
  %3 = load i32, ptr @proto_imf, align 4
  %4 = tail call ptr @expert_register_protocol(i32 noundef %3)
  tail call void @expert_register_field_array(ptr noundef %4, ptr noundef nonnull @proto_register_imf.ei, i32 noundef 1)
  %5 = load i32, ptr @proto_imf, align 4
  %6 = tail call ptr @register_dissector(ptr noundef nonnull @.str.182, ptr noundef nonnull @dissect_imf, i32 noundef %5)
  store ptr %6, ptr @imf_handle, align 8
  %7 = load i32, ptr @proto_imf, align 4
  %8 = tail call ptr @prefs_register_protocol(i32 noundef %7, ptr noundef null)
  tail call void @prefs_register_uat_preference(ptr noundef %8, ptr noundef nonnull @.str.183, ptr noundef nonnull @.str.178, ptr noundef nonnull @.str.184, ptr noundef %1)
  %9 = tail call ptr @wmem_epan_scope()
  %10 = tail call noalias ptr @wmem_map_new(ptr noundef %9, ptr noundef nonnull @wmem_str_hash, ptr noundef nonnull @g_str_equal)
  store ptr %10, ptr @imf_field_table, align 8
  %11 = load ptr, ptr @imf_fields, align 16
  %.not8 = icmp eq ptr %11, null
  br i1 %.not8, label %._crit_edge, label %.lr.ph

.lr.ph:                                           ; preds = %0, %.lr.ph
  %12 = phi ptr [ %16, %.lr.ph ], [ %11, %0 ]
  %.09 = phi ptr [ %15, %.lr.ph ], [ @imf_fields, %0 ]
  %13 = load ptr, ptr @imf_field_table, align 8
  %14 = tail call ptr @wmem_map_insert(ptr noundef %13, ptr noundef nonnull %12, ptr noundef %.09)
  %15 = getelementptr i8, ptr %.09, i64 32
  %16 = load ptr, ptr %15, align 8
  %.not = icmp eq ptr %16, null
  br i1 %.not, label %._crit_edge, label %.lr.ph, !llvm.loop !8

._crit_edge:                                      ; preds = %.lr.ph, %0
  %17 = load i32, ptr @proto_imf, align 4
  %18 = tail call i32 @register_export_object(i32 noundef %17, ptr noundef nonnull @imf_eo_packet, ptr noundef null)
  store i32 %18, ptr @imf_eo_tap, align 4
  ret void
}